Certificate:
    Data:
        Version: 1 (0x0)
        Serial Number: 168 (0xa8)
    Signature Algorithm: md5WithRSAEncryption
        Issuer: C=SG, ST=Singapore, L=Singapore, O=SUTD, OU=SUTD, CN=Benjamin Kang/emailAddress=webby1111@hotmail.com
        Validity
            Not Before: Mar 25 05:21:47 2018 GMT
            Not After : Mar 25 05:21:47 2019 GMT
        Subject: C=SG, ST=Singapore, L=Singapore, O=SUTD, OU=ISTD, CN=SUTD/emailAddress=jingyu_koh@mymail.sutd.edu.sg
        Subject Public Key Info:
            Public Key Algorithm: rsaEncryption
                Public-Key: (1024 bit)
                Modulus:
                    00:ae:da:d9:04:40:fa:80:0c:12:35:1b:8b:e5:c6:
                    01:dc:2d:3b:15:0c:17:3d:40:f1:af:a9:3c:f6:df:
                    dc:41:00:49:0b:96:ec:04:66:f7:ac:9b:71:a0:f5:
                    28:3c:4c:a0:83:b9:95:b9:b7:df:b4:2c:4c:36:d5:
                    93:49:cd:08:84:c4:68:bc:76:3d:ab:9c:59:33:17:
                    ae:25:cb:c4:b8:24:8a:49:d8:fa:3a:a7:2b:84:ba:
                    08:31:7a:b9:42:09:a9:f5:21:bf:74:ea:a6:4a:18:
                    ba:59:1b:9b:24:58:90:85:47:32:7c:81:b0:e5:83:
                    43:03:33:97:72:43:fb:90:6f
                Exponent: 65537 (0x10001)
    Signature Algorithm: md5WithRSAEncryption
         86:53:37:12:bc:72:47:68:bf:a0:be:17:3c:e6:01:93:93:88:
         57:d9:b6:7b:e1:00:f8:63:4c:7c:35:71:b6:83:a5:53:c0:f3:
         a0:24:96:79:8e:1d:09:63:fc:d1:04:e8:cf:a4:c3:bb:60:82:
         c8:91:ac:b0:03:44:ed:8d:84:43:fe:52:1d:b1:fa:eb:f4:85:
         ed:b4:ac:76:1a:fe:42:9e:4b:54:53:b9:c3:c2:d1:72:f9:11:
         3f:db:30:54:94:5a:a6:14:51:34:64:46:78:a4:d7:3b:c2:41:
         a2:1c:aa:0a:a7:af:fa:7b:86:f7:fa:54:af:1f:59:e9:bf:58:
         bc:3f
-----BEGIN CERTIFICATE-----
MIICkzCCAfwCAgCoMA0GCSqGSIb3DQEBBAUAMIGRMQswCQYDVQQGEwJTRzESMBAG
A1UECBMJU2luZ2Fwb3JlMRIwEAYDVQQHEwlTaW5nYXBvcmUxDTALBgNVBAoTBFNV
VEQxDTALBgNVBAsTBFNVVEQxFjAUBgNVBAMTDUJlbmphbWluIEthbmcxJDAiBgkq
hkiG9w0BCQEWFXdlYmJ5MTExMUBob3RtYWlsLmNvbTAeFw0xODAzMjUwNTIxNDda
Fw0xOTAzMjUwNTIxNDdaMIGQMQswCQYDVQQGEwJTRzESMBAGA1UECAwJU2luZ2Fw
b3JlMRIwEAYDVQQHDAlTaW5nYXBvcmUxDTALBgNVBAoMBFNVVEQxDTALBgNVBAsM
BElTVEQxDTALBgNVBAMMBFNVVEQxLDAqBgkqhkiG9w0BCQEWHWppbmd5dV9rb2hA
bXltYWlsLnN1dGQuZWR1LnNnMIGfMA0GCSqGSIb3DQEBAQUAA4GNADCBiQKBgQCu
2tkEQPqADBI1G4vlxgHcLTsVDBc9QPGvqTz239xBAEkLluwEZvesm3Gg9Sg8TKCD
uZW5t9+0LEw21ZNJzQiExGi8dj2rnFkzF64ly8S4JIpJ2Po6pyuEuggxerlCCan1
Ib906qZKGLpZG5skWJCFRzJ8gbDlg0MDM5dyQ/uQbwIDAQABMA0GCSqGSIb3DQEB
BAUAA4GBAIZTNxK8ckdov6C+FzzmAZOTiFfZtnvhAPhjTHw1cbaDpVPA86AklnmO
HQlj/NEE6M+kw7tggsiRrLADRO2NhEP+Uh2x+uv0he20rHYa/kKeS1RTucPC0XL5
ET/bMFSUWqYUUTRkRnik1zvCQaIcqgqnr/p7hvf6VK8fWem/WLw/
-----END CERTIFICATE-----
